target datalayout = "e-m:e-p270:32:32-p271:32:32-p272:64:64-i64:64-i128:128-f80:128-n8:16:32:64-S128"
target triple = "x86_64-pc-linux-gnu"

%"class.std::__cxx11::basic_string" = type { %"struct.std::__cxx11::basic_string<char>::_Alloc_hider", i64, %union.anon }
%"struct.std::__cxx11::basic_string<char>::_Alloc_hider" = type { ptr }
%union.anon = type { i64, [8 x i8] }

; Function Attrs: mustprogress nounwind uwtable
define available_externally noundef ptr @_ZNKSt7__cxx1112basic_stringIcSt11char_traitsIcESaIcEE7_M_dataEv(ptr noundef nonnull align 8 dereferenceable(32) %0) #4 align 2 {
  %2 = alloca ptr, align 8
  store ptr %0, ptr %2, align 8, !tbaa !28
  %3 = load ptr, ptr %2, align 8
  %4 = getelementptr inbounds nuw %"class.std::__cxx11::basic_string", ptr %3, i32 0, i32 0
  %5 = getelementptr inbounds nuw %"struct.std::__cxx11::basic_string<char>::_Alloc_hider", ptr %4, i32 0, i32 0
  %6 = load ptr, ptr %5, align 8, !tbaa !191
  ret ptr %6
}

; Function Attrs: mustprogress nounwind uwtable
define dso_local noundef zeroext i1 @_ZN5cmsys17SystemToolsStatic14FileIsFullPathEPKcm(ptr noundef %0, i64 noundef %1) #4 align 2 {
  %3 = alloca i1, align 1
  %4 = alloca ptr, align 8
  %5 = alloca i64, align 8
  store ptr %0, ptr %4, align 8, !tbaa !13
  store i64 %1, ptr %5, align 8, !tbaa !15
  %6 = load i64, ptr %5, align 8, !tbaa !15
  %7 = icmp ult i64 %6, 1
  br i1 %7, label %8, label %9

8:                                                ; preds = %2
  store i1 false, ptr %3, align 1
  br label %24

9:                                                ; preds = %2
  %10 = load ptr, ptr %4, align 8, !tbaa !13
  %11 = getelementptr inbounds i8, ptr %10, i64 0
  %12 = load i8, ptr %11, align 1, !tbaa !16
  %13 = sext i8 %12 to i32
  %14 = icmp eq i32 %13, 126
  br i1 %14, label %15, label %16

15:                                               ; preds = %9
  store i1 true, ptr %3, align 1
  br label %24

16:                                               ; preds = %9
  %17 = load ptr, ptr %4, align 8, !tbaa !13
  %18 = getelementptr inbounds i8, ptr %17, i64 0
  %19 = load i8, ptr %18, align 1, !tbaa !16
  %20 = sext i8 %19 to i32
  %21 = icmp eq i32 %20, 47
  br i1 %21, label %22, label %23

22:                                               ; preds = %16
  store i1 true, ptr %3, align 1
  br label %24

23:                                               ; preds = %16
  store i1 false, ptr %3, align 1
  br label %24

24:                                               ; preds = %23, %22, %15, %8
  %25 = load i1, ptr %3, align 1
  ret i1 %25
}

; Function Attrs: mustprogress nounwind uwtable
define available_externally noundef i64 @_ZNKSt7__cxx1112basic_stringIcSt11char_traitsIcESaIcEE4sizeEv(ptr noundef nonnull align 8 dereferenceable(32) %0) #4 align 2 {
  %2 = alloca ptr, align 8
  store ptr %0, ptr %2, align 8, !tbaa !28
  %3 = load ptr, ptr %2, align 8
  %4 = getelementptr inbounds nuw %"class.std::__cxx11::basic_string", ptr %3, i32 0, i32 1
  %5 = load i64, ptr %4, align 8, !tbaa !51
  ret i64 %5
}

; Function Attrs: mustprogress nounwind uwtable
define available_externally noundef ptr @_ZNKSt7__cxx1112basic_stringIcSt11char_traitsIcESaIcEE5c_strEv(ptr noundef nonnull align 8 dereferenceable(32) %0) #4 align 2 {
  %2 = alloca ptr, align 8
  store ptr %0, ptr %2, align 8, !tbaa !28
  %3 = load ptr, ptr %2, align 8
  %4 = call noundef ptr @_ZNKSt7__cxx1112basic_stringIcSt11char_traitsIcESaIcEE7_M_dataEv(ptr noundef nonnull align 8 dereferenceable(32) %3)
  ret ptr %4
}

; Function Attrs: mustprogress uwtable
define dso_local noundef zeroext i1 @_ZN5cmsys11SystemTools14FileIsFullPathERKNSt7__cxx1112basic_stringIcSt11char_traitsIcESaIcEEE(ptr noundef nonnull align 8 dereferenceable(32) %0) #7 align 2 {
  %2 = alloca ptr, align 8
  store ptr %0, ptr %2, align 8, !tbaa !28
  %3 = load ptr, ptr %2, align 8, !tbaa !28
  %4 = call noundef ptr @_ZNKSt7__cxx1112basic_stringIcSt11char_traitsIcESaIcEE5c_strEv(ptr noundef nonnull align 8 dereferenceable(32) %3) #1
  %5 = load ptr, ptr %2, align 8, !tbaa !28
  %6 = call noundef i64 @_ZNKSt7__cxx1112basic_stringIcSt11char_traitsIcESaIcEE4sizeEv(ptr noundef nonnull align 8 dereferenceable(32) %5) #1
  %7 = call noundef zeroext i1 @_ZN5cmsys17SystemToolsStatic14FileIsFullPathEPKcm(ptr noundef %4, i64 noundef %6)
  ret i1 %7
}