; Function Attrs: mustprogress nofree norecurse nosync nounwind willreturn memory(read, inaccessiblemem: none) uwtable
define dso_local noundef zeroext i1 @_ZN5cmsys11SystemTools14FileIsFullPathERKNSt7__cxx1112basic_stringIcSt11char_traitsIcESaIcEEE(ptr noundef nonnull readonly align 8 captures(none) dereferenceable(32) %0) local_unnamed_addr #28 align 2 {
  %2 = getelementptr inbounds nuw i8, ptr %0, i64 8
  %3 = load i64, ptr %2, align 8, !tbaa !18
  %4 = icmp eq i64 %3, 0
  br i1 %4, label %_ZN5cmsys17SystemToolsStatic14FileIsFullPathEPKcm.exit, label %5

5:                                                ; preds = %1
  %6 = load ptr, ptr %0, align 8, !tbaa !21
  %7 = load i8, ptr %6, align 1, !tbaa !20
  %switch.selectcmp.case1.i = icmp eq i8 %7, 126
  %switch.selectcmp.case2.i = icmp eq i8 %7, 47
  %switch.selectcmp.i = or i1 %switch.selectcmp.case1.i, %switch.selectcmp.case2.i
  br label %_ZN5cmsys17SystemToolsStatic14FileIsFullPathEPKcm.exit

_ZN5cmsys17SystemToolsStatic14FileIsFullPathEPKcm.exit: ; preds = %1, %5
  %.0.i = phi i1 [ false, %1 ], [ %switch.selectcmp.i, %5 ]
  ret i1 %.0.i
}